; Function Attrs: mustprogress nofree norecurse nosync nounwind willreturn memory(read, inaccessiblemem: none) uwtable
define hidden noundef zeroext i1 @_ZNK6google8protobuf10Reflection25SupportsUnknownEnumValuesEv(ptr noundef nonnull readonly align 8 captures(none) dereferenceable(96) %0) local_unnamed_addr #7 align 2 {
  %2 = load ptr, ptr %0, align 8, !tbaa !18
  %3 = getelementptr inbounds nuw i8, ptr %2, i64 16
  %4 = load ptr, ptr %3, align 8, !tbaa !238
  %5 = getelementptr i8, ptr %4, i64 58
  %.val = load i8, ptr %5, align 2, !tbaa !192
  %6 = icmp eq i8 %.val, 3
  ret i1 %6
}